; ModuleID = '17/813.c'
source_filename = "17/813.c"
target datalayout = "e-m:e-p270:32:32-p271:32:32-p272:64:64-i64:64-f80:128-n8:16:32:64-S128"
target triple = "x86_64-pc-linux-gnu"

@.str = private unnamed_addr constant [4 x i8] c"%d\0A\00", align 1
@.str.1 = private unnamed_addr constant [4 x i8] c"%s\0A\00", align 1

; Function Attrs: noinline nounwind uwtable
define dso_local i32 @main() #0 {
  %1 = alloca i32, align 4
  %2 = alloca i32, align 4
  %3 = alloca i32, align 4
  %4 = alloca [200 x i8], align 16
  %5 = alloca [200 x i8], align 16
  store i32 0, i32* %1, align 4
  %6 = call i32 (i8*, ...) @__isoc99_scanf(i8* getelementptr inbounds ([4 x i8], [4 x i8]* @.str, i64 0, i64 0), i32* %2)
  store i32 0, i32* %3, align 4
  br label %7

7:                                                ; preds = %21, %0
  %8 = load i32, i32* %3, align 4
  %9 = load i32, i32* %2, align 4
  %10 = icmp slt i32 %8, %9
  br i1 %10, label %11, label %24

11:                                               ; preds = %7
  %12 = bitcast [200 x i8]* %4 to i8*
  call void @llvm.memset.p0i8.i64(i8* align 16 %12, i8 0, i64 200, i1 false)
  %13 = bitcast [200 x i8]* %5 to i8*
  call void @llvm.memset.p0i8.i64(i8* align 16 %13, i8 0, i64 200, i1 false)
  %14 = getelementptr inbounds [200 x i8], [200 x i8]* %4, i64 0, i64 0
  %15 = call i32 (i8*, ...) bitcast (i32 (...)* @gets to i32 (i8*, ...)*)(i8* %14)
  %16 = getelementptr inbounds [200 x i8], [200 x i8]* %4, i64 0, i64 0
  %17 = call i32 (i8*, ...) @printf(i8* getelementptr inbounds ([4 x i8], [4 x i8]* @.str.1, i64 0, i64 0), i8* %16)
  %18 = getelementptr inbounds [200 x i8], [200 x i8]* %4, i64 0, i64 0
  call void @kuo(i8* %18)
  %19 = getelementptr inbounds [200 x i8], [200 x i8]* %4, i64 0, i64 0
  %20 = getelementptr inbounds [200 x i8], [200 x i8]* %5, i64 0, i64 0
  call void @pipei(i8* %19, i8* %20)
  br label %21

21:                                               ; preds = %11
  %22 = load i32, i32* %3, align 4
  %23 = add nsw i32 %22, 1
  store i32 %23, i32* %3, align 4
  br label %7

24:                                               ; preds = %7
  ret i32 0
}

declare dso_local i32 @__isoc99_scanf(i8*, ...) #1

; Function Attrs: argmemonly nounwind willreturn
declare void @llvm.memset.p0i8.i64(i8* nocapture writeonly, i8, i64, i1 immarg) #2

declare dso_local i32 @gets(...) #1

declare dso_local i32 @printf(i8*, ...) #1

; Function Attrs: noinline nounwind uwtable
define dso_local void @kuo(i8* %0) #0 {
  %2 = alloca i8*, align 8
  %3 = alloca i8*, align 8
  %4 = alloca i8*, align 8
  %5 = alloca i8*, align 8
  %6 = alloca i8*, align 8
  %7 = alloca i32, align 4
  store i8* %0, i8** %2, align 8
  br label %8

8:                                                ; preds = %100, %1
  store i32 0, i32* %7, align 4
  %9 = load i8*, i8** %2, align 8
  store i8* %9, i8** %5, align 8
  br label %10

10:                                               ; preds = %60, %8
  %11 = load i8*, i8** %5, align 8
  %12 = load i8, i8* %11, align 1
  %13 = sext i8 %12 to i32
  %14 = icmp ne i32 %13, 0
  br i1 %14, label %15, label %63

15:                                               ; preds = %10
  %16 = load i8*, i8** %5, align 8
  store i8* %16, i8** %3, align 8
  br label %17

17:                                               ; preds = %56, %15
  %18 = load i8*, i8** %3, align 8
  %19 = load i8, i8* %18, align 1
  %20 = sext i8 %19 to i32
  %21 = icmp ne i32 %20, 0
  br i1 %21, label %22, label %59

22:                                               ; preds = %17
  %23 = load i8*, i8** %3, align 8
  %24 = load i8, i8* %23, align 1
  %25 = sext i8 %24 to i32
  %26 = icmp eq i32 %25, 40
  br i1 %26, label %27, label %55

27:                                               ; preds = %22
  %28 = load i8*, i8** %3, align 8
  %29 = getelementptr inbounds i8, i8* %28, i64 1
  store i8* %29, i8** %4, align 8
  br label %30

30:                                               ; preds = %51, %27
  %31 = load i8*, i8** %4, align 8
  %32 = load i8, i8* %31, align 1
  %33 = sext i8 %32 to i32
  %34 = icmp ne i32 %33, 0
  br i1 %34, label %35, label %54

35:                                               ; preds = %30
  %36 = load i8*, i8** %4, align 8
  %37 = load i8, i8* %36, align 1
  %38 = sext i8 %37 to i32
  %39 = icmp eq i32 %38, 40
  br i1 %39, label %40, label %41

40:                                               ; preds = %35
  br label %54

41:                                               ; preds = %35
  %42 = load i8*, i8** %4, align 8
  %43 = load i8, i8* %42, align 1
  %44 = sext i8 %43 to i32
  %45 = icmp eq i32 %44, 41
  br i1 %45, label %46, label %49

46:                                               ; preds = %41
  %47 = load i8*, i8** %3, align 8
  store i8 97, i8* %47, align 1
  %48 = load i8*, i8** %4, align 8
  store i8 97, i8* %48, align 1
  br label %54

49:                                               ; preds = %41
  br label %50

50:                                               ; preds = %49
  br label %51

51:                                               ; preds = %50
  %52 = load i8*, i8** %4, align 8
  %53 = getelementptr inbounds i8, i8* %52, i32 1
  store i8* %53, i8** %4, align 8
  br label %30

54:                                               ; preds = %46, %40, %30
  br label %55

55:                                               ; preds = %54, %22
  br label %56

56:                                               ; preds = %55
  %57 = load i8*, i8** %3, align 8
  %58 = getelementptr inbounds i8, i8* %57, i32 1
  store i8* %58, i8** %3, align 8
  br label %17

59:                                               ; preds = %17
  br label %60

60:                                               ; preds = %59
  %61 = load i8*, i8** %5, align 8
  %62 = getelementptr inbounds i8, i8* %61, i32 1
  store i8* %62, i8** %5, align 8
  br label %10

63:                                               ; preds = %10
  %64 = load i8*, i8** %2, align 8
  store i8* %64, i8** %4, align 8
  br label %65

65:                                               ; preds = %93, %63
  %66 = load i8*, i8** %4, align 8
  %67 = load i8, i8* %66, align 1
  %68 = sext i8 %67 to i32
  %69 = icmp ne i32 %68, 0
  br i1 %69, label %70, label %96

70:                                               ; preds = %65
  %71 = load i8*, i8** %4, align 8
  store i8* %71, i8** %6, align 8
  br label %72

72:                                               ; preds = %89, %70
  %73 = load i8*, i8** %6, align 8
  %74 = load i8, i8* %73, align 1
  %75 = sext i8 %74 to i32
  %76 = icmp ne i32 %75, 0
  br i1 %76, label %77, label %92

77:                                               ; preds = %72
  %78 = load i8*, i8** %4, align 8
  %79 = load i8, i8* %78, align 1
  %80 = sext i8 %79 to i32
  %81 = icmp eq i32 %80, 40
  br i1 %81, label %82, label %88

82:                                               ; preds = %77
  %83 = load i8*, i8** %6, align 8
  %84 = load i8, i8* %83, align 1
  %85 = sext i8 %84 to i32
  %86 = icmp eq i32 %85, 41
  br i1 %86, label %87, label %88

87:                                               ; preds = %82
  store i32 1, i32* %7, align 4
  br label %88

88:                                               ; preds = %87, %82, %77
  br label %89

89:                                               ; preds = %88
  %90 = load i8*, i8** %6, align 8
  %91 = getelementptr inbounds i8, i8* %90, i32 1
  store i8* %91, i8** %6, align 8
  br label %72

92:                                               ; preds = %72
  br label %93

93:                                               ; preds = %92
  %94 = load i8*, i8** %4, align 8
  %95 = getelementptr inbounds i8, i8* %94, i32 1
  store i8* %95, i8** %4, align 8
  br label %65

96:                                               ; preds = %65
  %97 = load i32, i32* %7, align 4
  %98 = icmp eq i32 %97, 0
  br i1 %98, label %99, label %100

99:                                               ; preds = %96
  br label %101

100:                                              ; preds = %96
  br label %8

101:                                              ; preds = %99
  ret void
}

; Function Attrs: noinline nounwind uwtable
define dso_local void @pipei(i8* %0, i8* %1) #0 {
  %3 = alloca i8*, align 8
  %4 = alloca i8*, align 8
  %5 = alloca i8*, align 8
  %6 = alloca i8*, align 8
  store i8* %0, i8** %3, align 8
  store i8* %1, i8** %4, align 8
  %7 = load i8*, i8** %3, align 8
  store i8* %7, i8** %5, align 8
  %8 = load i8*, i8** %4, align 8
  store i8* %8, i8** %6, align 8
  br label %9

9:                                                ; preds = %41, %2
  %10 = load i8*, i8** %5, align 8
  %11 = load i8, i8* %10, align 1
  %12 = sext i8 %11 to i32
  %13 = icmp ne i32 %12, 0
  br i1 %13, label %14, label %46

14:                                               ; preds = %9
  %15 = load i8*, i8** %5, align 8
  %16 = load i8, i8* %15, align 1
  %17 = sext i8 %16 to i32
  %18 = icmp ne i32 %17, 40
  br i1 %18, label %19, label %26

19:                                               ; preds = %14
  %20 = load i8*, i8** %5, align 8
  %21 = load i8, i8* %20, align 1
  %22 = sext i8 %21 to i32
  %23 = icmp ne i32 %22, 41
  br i1 %23, label %24, label %26

24:                                               ; preds = %19
  %25 = load i8*, i8** %6, align 8
  store i8 32, i8* %25, align 1
  br label %26

26:                                               ; preds = %24, %19, %14
  %27 = load i8*, i8** %5, align 8
  %28 = load i8, i8* %27, align 1
  %29 = sext i8 %28 to i32
  %30 = icmp eq i32 %29, 41
  br i1 %30, label %31, label %33

31:                                               ; preds = %26
  %32 = load i8*, i8** %6, align 8
  store i8 63, i8* %32, align 1
  br label %33

33:                                               ; preds = %31, %26
  %34 = load i8*, i8** %5, align 8
  %35 = load i8, i8* %34, align 1
  %36 = sext i8 %35 to i32
  %37 = icmp eq i32 %36, 40
  br i1 %37, label %38, label %40

38:                                               ; preds = %33
  %39 = load i8*, i8** %6, align 8
  store i8 36, i8* %39, align 1
  br label %40

40:                                               ; preds = %38, %33
  br label %41

41:                                               ; preds = %40
  %42 = load i8*, i8** %5, align 8
  %43 = getelementptr inbounds i8, i8* %42, i32 1
  store i8* %43, i8** %5, align 8
  %44 = load i8*, i8** %6, align 8
  %45 = getelementptr inbounds i8, i8* %44, i32 1
  store i8* %45, i8** %6, align 8
  br label %9

46:                                               ; preds = %9
  %47 = load i8*, i8** %5, align 8
  %48 = load i8, i8* %47, align 1
  %49 = load i8*, i8** %6, align 8
  store i8 %48, i8* %49, align 1
  %50 = load i8*, i8** %4, align 8
  %51 = call i32 (i8*, ...) @printf(i8* getelementptr inbounds ([4 x i8], [4 x i8]* @.str.1, i64 0, i64 0), i8* %50)
  ret void
}


!llvm.module.flags = !{!0}
!llvm.ident = !{!1}

!0 = !{i32 1, !"wchar_size", i32 4}
!1 = !{!"clang version 10.0.0-4ubuntu1 "}
